target datalayout = "e-m:e-p270:32:32-p271:32:32-p272:64:64-i64:64-i128:128-f80:128-n8:16:32:64-S128"
target triple = "x86_64-pc-linux-gnu"

%struct.expert_field = type { i32, i32 }

@hf_pfcp_user_plane_inactivity_timer = internal global i32 0, align 4
@ei_pfcp_ie_data_not_decoded = internal global %struct.expert_field zeroinitializer, align 4
@.str.2671 = private unnamed_addr constant [11 x i8] c" (Stopped)\00", align 1

; Function Attrs: null_pointer_is_valid sspstrong uwtable
define internal void @dissect_pfcp_user_plane_inactivity_timer(ptr noundef %0, ptr noundef %1, ptr noundef %2, ptr noundef %3, i16 noundef zeroext %4, i8 noundef zeroext %5, ptr noundef %6) #0 {
  %8 = alloca ptr, align 8
  %9 = alloca ptr, align 8
  %10 = alloca ptr, align 8
  %11 = alloca ptr, align 8
  %12 = alloca i16, align 2
  %13 = alloca i8, align 1
  %14 = alloca ptr, align 8
  %15 = alloca i32, align 4
  %16 = alloca i32, align 4
  store ptr %0, ptr %8, align 8
  store ptr %1, ptr %9, align 8
  store ptr %2, ptr %10, align 8
  store ptr %3, ptr %11, align 8
  store i16 %4, ptr %12, align 2
  store i8 %5, ptr %13, align 1
  store ptr %6, ptr %14, align 8
  call void @llvm.lifetime.start.p0(i64 4, ptr %15) #13
  store i32 0, ptr %15, align 4
  call void @llvm.lifetime.start.p0(i64 4, ptr %16) #13
  %17 = load ptr, ptr %10, align 8
  %18 = load i32, ptr @hf_pfcp_user_plane_inactivity_timer, align 4
  %19 = load ptr, ptr %8, align 8
  %20 = load i32, ptr %15, align 4
  %21 = call ptr @proto_tree_add_item_ret_uint(ptr noundef %17, i32 noundef %18, ptr noundef %19, i32 noundef %20, i32 noundef 4, i32 noundef 0, ptr noundef %16)
  %22 = load i32, ptr %15, align 4
  %23 = add i32 %22, 4
  store i32 %23, ptr %15, align 4
  %24 = load i32, ptr %16, align 4
  %25 = icmp eq i32 %24, 0
  br i1 %25, label %26, label %28

26:                                               ; preds = %7
  %27 = load ptr, ptr %11, align 8
  call void (ptr, ptr, ...) @proto_item_append_text(ptr noundef %27, ptr noundef @.str.2671)
  br label %28

28:                                               ; preds = %26, %7
  %29 = load i32, ptr %15, align 4
  %30 = load i16, ptr %12, align 2
  %31 = zext i16 %30 to i32
  %32 = icmp slt i32 %29, %31
  br i1 %32, label %33, label %39

33:                                               ; preds = %28
  %34 = load ptr, ptr %10, align 8
  %35 = load ptr, ptr %9, align 8
  %36 = load ptr, ptr %8, align 8
  %37 = load i32, ptr %15, align 4
  %38 = call ptr @proto_tree_add_expert(ptr noundef %34, ptr noundef %35, ptr noundef @ei_pfcp_ie_data_not_decoded, ptr noundef %36, i32 noundef %37, i32 noundef -1)
  br label %39

39:                                               ; preds = %33, %28
  call void @llvm.lifetime.end.p0(i64 4, ptr %16) #13
  call void @llvm.lifetime.end.p0(i64 4, ptr %15) #13
  ret void
}